target datalayout = "e-m:e-p270:32:32-p271:32:32-p272:64:64-i64:64-i128:128-f80:128-n8:16:32:64-S128"
target triple = "x86_64-unknown-linux-gnu"

%struct.AioContext = type { %struct._GSource, %struct.QemuRecMutex, ptr, %struct.AioHandlerList, %struct.AioHandlerList, i32, %struct.QemuLockCnt, %struct.BHList, %struct.anon.1, i8, %struct.EventNotifier, %struct.anon.2, ptr, i32, i32, ptr, ptr, %struct.io_uring, %struct.AioHandlerSList, %struct.QEMUTimerListGroup, i32, i64, i64, i64, i64, i64, %struct.AioHandlerList, i8, i32, ptr }
%struct._GSource = type { ptr, ptr, ptr, i32, ptr, i32, i32, i32, ptr, ptr, ptr, ptr, ptr }
%struct.QemuRecMutex = type { %struct.QemuMutex }
%struct.QemuMutex = type { %union.pthread_mutex_t, i8 }
%union.pthread_mutex_t = type { %struct.__pthread_mutex_s }
%struct.__pthread_mutex_s = type { i32, i32, i32, i32, i32, i16, i16, %struct.__pthread_internal_list }
%struct.__pthread_internal_list = type { ptr, ptr }
%struct.QemuLockCnt = type { i32 }
%struct.BHList = type { ptr }
%struct.anon.1 = type { ptr, ptr }
%struct.EventNotifier = type { i32, i32, i8 }
%struct.anon.2 = type { ptr }
%struct.io_uring = type { %struct.io_uring_sq, %struct.io_uring_cq, i32, i32, i32, [3 x i32] }
%struct.io_uring_sq = type { ptr, ptr, ptr, ptr, ptr, ptr, ptr, ptr, i32, i32, i64, ptr, [4 x i32] }
%struct.io_uring_cq = type { ptr, ptr, ptr, ptr, ptr, ptr, ptr, i64, ptr, [4 x i32] }
%struct.AioHandlerSList = type { ptr }
%struct.QEMUTimerListGroup = type { [4 x ptr] }
%struct.AioHandlerList = type { ptr }

@.str = private unnamed_addr constant [21 x i8] c"../qemu/util/async.c\00", align 1
@__func__.aio_context_set_thread_pool_params = private unnamed_addr constant [35 x i8] c"aio_context_set_thread_pool_params\00", align 1
@.str.8 = private unnamed_addr constant [43 x i8] c"bad thread-pool-min/thread-pool-max values\00", align 1

; Function Attrs: nounwind sspstrong uwtable
define dso_local void @aio_context_set_thread_pool_params(ptr noundef %ctx, i64 noundef %min, i64 noundef %max, ptr noundef %errp) #0 {
entry:
  %ctx.addr = alloca ptr, align 8
  %min.addr = alloca i64, align 8
  %max.addr = alloca i64, align 8
  %errp.addr = alloca ptr, align 8
  store ptr %ctx, ptr %ctx.addr, align 8
  store i64 %min, ptr %min.addr, align 8
  store i64 %max, ptr %max.addr, align 8
  store ptr %errp, ptr %errp.addr, align 8
  %0 = load i64, ptr %min.addr, align 8
  %1 = load i64, ptr %max.addr, align 8
  %cmp = icmp sgt i64 %0, %1
  br i1 %cmp, label %if.then, label %lor.lhs.false

lor.lhs.false:                                    ; preds = %entry
  %2 = load i64, ptr %max.addr, align 8
  %tobool = icmp ne i64 %2, 0
  br i1 %tobool, label %lor.lhs.false1, label %if.then

lor.lhs.false1:                                   ; preds = %lor.lhs.false
  %3 = load i64, ptr %min.addr, align 8
  %cmp2 = icmp sgt i64 %3, 2147483647
  br i1 %cmp2, label %if.then, label %lor.lhs.false3

lor.lhs.false3:                                   ; preds = %lor.lhs.false1
  %4 = load i64, ptr %max.addr, align 8
  %cmp4 = icmp sgt i64 %4, 2147483647
  br i1 %cmp4, label %if.then, label %if.end

if.then:                                          ; preds = %lor.lhs.false3, %lor.lhs.false1, %lor.lhs.false, %entry
  %5 = load ptr, ptr %errp.addr, align 8
  call void (ptr, ptr, i32, ptr, ptr, ...) @error_setg_internal(ptr noundef %5, ptr noundef @.str, i32 noundef 762, ptr noundef @__func__.aio_context_set_thread_pool_params, ptr noundef @.str.8)
  br label %if.end9

if.end:                                           ; preds = %lor.lhs.false3
  %6 = load i64, ptr %min.addr, align 8
  %conv = trunc i64 %6 to i32
  %7 = load ptr, ptr %ctx.addr, align 8
  %thread_pool_min = getelementptr inbounds %struct.AioContext, ptr %7, i32 0, i32 13
  store i32 %conv, ptr %thread_pool_min, align 8
  %8 = load i64, ptr %max.addr, align 8
  %conv5 = trunc i64 %8 to i32
  %9 = load ptr, ptr %ctx.addr, align 8
  %thread_pool_max = getelementptr inbounds %struct.AioContext, ptr %9, i32 0, i32 14
  store i32 %conv5, ptr %thread_pool_max, align 4
  %10 = load ptr, ptr %ctx.addr, align 8
  %thread_pool = getelementptr inbounds %struct.AioContext, ptr %10, i32 0, i32 15
  %11 = load ptr, ptr %thread_pool, align 8
  %tobool6 = icmp ne ptr %11, null
  br i1 %tobool6, label %if.then7, label %if.end9

if.then7:                                         ; preds = %if.end
  %12 = load ptr, ptr %ctx.addr, align 8
  %thread_pool8 = getelementptr inbounds %struct.AioContext, ptr %12, i32 0, i32 15
  %13 = load ptr, ptr %thread_pool8, align 8
  %14 = load ptr, ptr %ctx.addr, align 8
  call void @thread_pool_update_params(ptr noundef %13, ptr noundef %14)
  br label %if.end9

if.end9:                                          ; preds = %if.then7, %if.end, %if.then
  ret void
}