; Function Attrs: nounwind sspstrong uwtable
define dso_local void @aio_context_set_thread_pool_params(ptr noundef %ctx, i64 noundef %min, i64 noundef %max, ptr noundef %errp) local_unnamed_addr #0 {
entry:
  %cmp = icmp sgt i64 %min, %max
  %tobool = icmp eq i64 %max, 0
  %or.cond.not12 = or i1 %cmp, %tobool
  %cmp2 = icmp sgt i64 %min, 2147483647
  %or.cond1 = or i1 %cmp2, %or.cond.not12
  %cmp4 = icmp sgt i64 %max, 2147483647
  %or.cond2 = or i1 %cmp4, %or.cond1
  br i1 %or.cond2, label %if.then, label %if.end

if.then:                                          ; preds = %entry
  tail call void (ptr, ptr, i32, ptr, ptr, ...) @error_setg_internal(ptr noundef %errp, ptr noundef nonnull @.str, i32 noundef 762, ptr noundef nonnull @__func__.aio_context_set_thread_pool_params, ptr noundef nonnull @.str.8) #13
  br label %if.end9

if.end:                                           ; preds = %entry
  %conv = trunc i64 %min to i32
  %thread_pool_min = getelementptr inbounds nuw i8, ptr %ctx, i64 232
  store i32 %conv, ptr %thread_pool_min, align 8
  %conv5 = trunc i64 %max to i32
  %thread_pool_max = getelementptr inbounds nuw i8, ptr %ctx, i64 236
  store i32 %conv5, ptr %thread_pool_max, align 4
  %thread_pool = getelementptr inbounds nuw i8, ptr %ctx, i64 240
  %0 = load ptr, ptr %thread_pool, align 8
  %tobool6.not = icmp eq ptr %0, null
  br i1 %tobool6.not, label %if.end9, label %if.then7

if.then7:                                         ; preds = %if.end
  tail call void @thread_pool_update_params(ptr noundef nonnull %0, ptr noundef nonnull %ctx) #13
  br label %if.end9

if.end9:                                          ; preds = %if.then7, %if.end, %if.then
  ret void
}